target datalayout = "e-m:e-p270:32:32-p271:32:32-p272:64:64-i64:64-i128:128-f80:128-n8:16:32:64-S128"
target triple = "x86_64-pc-linux-gnu"

%"class.icu_77::UnicodeString" = type { %"class.icu_77::Replaceable", %"union.icu_77::UnicodeString::StackBufferOrFields" }
%"class.icu_77::Replaceable" = type { %"class.icu_77::UObject" }
%"class.icu_77::UObject" = type { ptr }
%"union.icu_77::UnicodeString::StackBufferOrFields" = type { %struct.anon.0, [32 x i8] }
%struct.anon.0 = type { i16, i32, i32, ptr }
%"class.icu_77::CollationDataBuilder" = type { %"class.icu_77::UObject", ptr, ptr, ptr, ptr, %"class.icu_77::UVector32", %"class.icu_77::UVector64", %"class.icu_77::UVector", %"class.icu_77::UnicodeSet", %"class.icu_77::UnicodeString", i32, [4 x i8], %"class.icu_77::UnicodeSet", i8, i8, i8, ptr, ptr }
%"class.icu_77::UVector32" = type { %"class.icu_77::UObject", i32, i32, i32, ptr }
%"class.icu_77::UVector64" = type { %"class.icu_77::UObject", i32, i32, i32, ptr }
%"class.icu_77::UVector" = type { %"class.icu_77::UObject", i32, i32, ptr, ptr, ptr }
%"class.icu_77::UnicodeSet" = type <{ %"class.icu_77::UnicodeFilter", ptr, i32, i32, i8, [7 x i8], ptr, ptr, i32, [4 x i8], ptr, i32, [4 x i8], ptr, ptr, [25 x i32], [4 x i8] }>
%"class.icu_77::UnicodeFilter" = type { %"class.icu_77::UnicodeFunctor", %"class.icu_77::UnicodeMatcher" }
%"class.icu_77::UnicodeFunctor" = type { %"class.icu_77::UObject" }
%"class.icu_77::UnicodeMatcher" = type { ptr }

; Function Attrs: inlinehint mustprogress uwtable
define linkonce_odr noundef signext i8 @_ZN6icu_779UVector6414ensureCapacityEiR10UErrorCode(ptr noundef nonnull align 8 dereferenceable(32) %0, i32 noundef %1, ptr noundef nonnull align 4 dereferenceable(4) %2) #7 comdat align 2 {
  %4 = alloca i8, align 1
  %5 = alloca ptr, align 8
  %6 = alloca i32, align 4
  %7 = alloca ptr, align 8
  store ptr %0, ptr %5, align 8, !tbaa !107
  store i32 %1, ptr %6, align 4, !tbaa !57
  store ptr %2, ptr %7, align 8, !tbaa !8
  %8 = load ptr, ptr %5, align 8
  %9 = load i32, ptr %6, align 4, !tbaa !57
  %10 = icmp sge i32 %9, 0
  br i1 %10, label %11, label %17

11:                                               ; preds = %3
  %12 = getelementptr inbounds nuw %"class.icu_77::UVector64", ptr %8, i32 0, i32 2
  %13 = load i32, ptr %12, align 4, !tbaa !229
  %14 = load i32, ptr %6, align 4, !tbaa !57
  %15 = icmp sge i32 %13, %14
  br i1 %15, label %16, label %17

16:                                               ; preds = %11
  store i8 1, ptr %4, align 1
  br label %21

17:                                               ; preds = %11, %3
  %18 = load i32, ptr %6, align 4, !tbaa !57
  %19 = load ptr, ptr %7, align 8, !tbaa !8
  %20 = call noundef signext i8 @_ZN6icu_779UVector6414expandCapacityEiR10UErrorCode(ptr noundef nonnull align 8 dereferenceable(32) %8, i32 noundef %18, ptr noundef nonnull align 4 dereferenceable(4) %19)
  store i8 %20, ptr %4, align 1
  br label %21

21:                                               ; preds = %17, %16
  %22 = load i8, ptr %4, align 1
  ret i8 %22
}

; Function Attrs: inlinehint mustprogress uwtable
define linkonce_odr void @_ZN6icu_779UVector6410addElementElR10UErrorCode(ptr noundef nonnull align 8 dereferenceable(32) %0, i64 noundef %1, ptr noundef nonnull align 4 dereferenceable(4) %2) #7 comdat align 2 {
  %4 = alloca ptr, align 8
  %5 = alloca i64, align 8
  %6 = alloca ptr, align 8
  store ptr %0, ptr %4, align 8, !tbaa !107
  store i64 %1, ptr %5, align 8, !tbaa !100
  store ptr %2, ptr %6, align 8, !tbaa !8
  %7 = load ptr, ptr %4, align 8
  %8 = getelementptr inbounds nuw %"class.icu_77::UVector64", ptr %7, i32 0, i32 1
  %9 = load i32, ptr %8, align 8, !tbaa !143
  %10 = add nsw i32 %9, 1
  %11 = load ptr, ptr %6, align 8, !tbaa !8
  %12 = call noundef signext i8 @_ZN6icu_779UVector6414ensureCapacityEiR10UErrorCode(ptr noundef nonnull align 8 dereferenceable(32) %7, i32 noundef %10, ptr noundef nonnull align 4 dereferenceable(4) %11)
  %13 = icmp ne i8 %12, 0
  br i1 %13, label %14, label %25

14:                                               ; preds = %3
  %15 = load i64, ptr %5, align 8, !tbaa !100
  %16 = getelementptr inbounds nuw %"class.icu_77::UVector64", ptr %7, i32 0, i32 4
  %17 = load ptr, ptr %16, align 8, !tbaa !109
  %18 = getelementptr inbounds nuw %"class.icu_77::UVector64", ptr %7, i32 0, i32 1
  %19 = load i32, ptr %18, align 8, !tbaa !143
  %20 = sext i32 %19 to i64
  %21 = getelementptr inbounds i64, ptr %17, i64 %20
  store i64 %15, ptr %21, align 8, !tbaa !100
  %22 = getelementptr inbounds nuw %"class.icu_77::UVector64", ptr %7, i32 0, i32 1
  %23 = load i32, ptr %22, align 8, !tbaa !143
  %24 = add nsw i32 %23, 1
  store i32 %24, ptr %22, align 8, !tbaa !143
  br label %25

25:                                               ; preds = %14, %3
  ret void
}

; Function Attrs: inlinehint mustprogress nounwind uwtable
define linkonce_odr noundef i64 @_ZNK6icu_779UVector6410elementAtiEi(ptr noundef nonnull align 8 dereferenceable(32) %0, i32 noundef %1) #3 comdat align 2 {
  %3 = alloca ptr, align 8
  %4 = alloca i32, align 4
  store ptr %0, ptr %3, align 8, !tbaa !107
  store i32 %1, ptr %4, align 4, !tbaa !57
  %5 = load ptr, ptr %3, align 8
  %6 = load i32, ptr %4, align 4, !tbaa !57
  %7 = icmp sle i32 0, %6
  br i1 %7, label %8, label %20

8:                                                ; preds = %2
  %9 = load i32, ptr %4, align 4, !tbaa !57
  %10 = getelementptr inbounds nuw %"class.icu_77::UVector64", ptr %5, i32 0, i32 1
  %11 = load i32, ptr %10, align 8, !tbaa !143
  %12 = icmp slt i32 %9, %11
  br i1 %12, label %13, label %20

13:                                               ; preds = %8
  %14 = getelementptr inbounds nuw %"class.icu_77::UVector64", ptr %5, i32 0, i32 4
  %15 = load ptr, ptr %14, align 8, !tbaa !109
  %16 = load i32, ptr %4, align 4, !tbaa !57
  %17 = sext i32 %16 to i64
  %18 = getelementptr inbounds i64, ptr %15, i64 %17
  %19 = load i64, ptr %18, align 8, !tbaa !100
  br label %21

20:                                               ; preds = %8, %2
  br label %21

21:                                               ; preds = %20, %13
  %22 = phi i64 [ %19, %13 ], [ 0, %20 ]
  ret i64 %22
}

; Function Attrs: inlinehint mustprogress nounwind uwtable
define linkonce_odr noundef i32 @_ZNK6icu_779UVector644sizeEv(ptr noundef nonnull align 8 dereferenceable(32) %0) #3 comdat align 2 {
  %2 = alloca ptr, align 8
  store ptr %0, ptr %2, align 8, !tbaa !107
  %3 = load ptr, ptr %2, align 8
  %4 = getelementptr inbounds nuw %"class.icu_77::UVector64", ptr %3, i32 0, i32 1
  %5 = load i32, ptr %4, align 8, !tbaa !143
  ret i32 %5
}

; Function Attrs: mustprogress nounwind uwtable
define linkonce_odr noundef i32 @_ZN6icu_779Collation21makeLongSecondaryCE32Ej(i32 noundef %0) #1 comdat align 2 {
  %2 = alloca i32, align 4
  store i32 %0, ptr %2, align 4, !tbaa !57
  %3 = load i32, ptr %2, align 4, !tbaa !57
  %4 = or i32 %3, 192
  %5 = or i32 %4, 2
  ret i32 %5
}

; Function Attrs: mustprogress nounwind uwtable
define linkonce_odr noundef i32 @_ZN6icu_779Collation19makeLongPrimaryCE32Ej(i32 noundef %0) #1 comdat align 2 {
  %2 = alloca i32, align 4
  store i32 %0, ptr %2, align 4, !tbaa !57
  %3 = load i32, ptr %2, align 4, !tbaa !57
  %4 = or i32 %3, 193
  ret i32 %4
}

; Function Attrs: mustprogress nounwind uwtable
define linkonce_odr noundef i32 @_ZN6icu_779Collation29makeCE32FromTagIndexAndLengthEiii(i32 noundef %0, i32 noundef %1, i32 noundef %2) #1 comdat align 2 {
  %4 = alloca i32, align 4
  %5 = alloca i32, align 4
  %6 = alloca i32, align 4
  store i32 %0, ptr %4, align 4, !tbaa !57
  store i32 %1, ptr %5, align 4, !tbaa !57
  store i32 %2, ptr %6, align 4, !tbaa !57
  %7 = load i32, ptr %5, align 4, !tbaa !57
  %8 = shl i32 %7, 13
  %9 = load i32, ptr %6, align 4, !tbaa !57
  %10 = shl i32 %9, 8
  %11 = or i32 %8, %10
  %12 = or i32 %11, 192
  %13 = load i32, ptr %4, align 4, !tbaa !57
  %14 = or i32 %12, %13
  ret i32 %14
}

; Function Attrs: inlinehint mustprogress nounwind uwtable
define internal noundef signext i8 @_ZL9U_FAILURE10UErrorCode(i32 noundef %0) #3 {
  %2 = alloca i32, align 4
  store i32 %0, ptr %2, align 4, !tbaa !97
  %3 = load i32, ptr %2, align 4, !tbaa !97
  %4 = icmp sgt i32 %3, 0
  %5 = zext i1 %4 to i8
  ret i8 %5
}

; Function Attrs: mustprogress uwtable
define noundef i32 @_ZN6icu_7720CollationDataBuilder5addCEElR10UErrorCode(ptr noundef nonnull align 8 dereferenceable(640) %0, i64 noundef %1, ptr noundef nonnull align 4 dereferenceable(4) %2) #4 align 2 {
  %4 = alloca i32, align 4
  %5 = alloca ptr, align 8
  %6 = alloca i64, align 8
  %7 = alloca ptr, align 8
  %8 = alloca i32, align 4
  %9 = alloca i32, align 4
  %10 = alloca i32, align 4
  store ptr %0, ptr %5, align 8, !tbaa !13
  store i64 %1, ptr %6, align 8, !tbaa !100
  store ptr %2, ptr %7, align 8, !tbaa !8
  %11 = load ptr, ptr %5, align 8
  call void @llvm.lifetime.start.p0(i64 4, ptr %8) #11
  %12 = getelementptr inbounds nuw %"class.icu_77::CollationDataBuilder", ptr %11, i32 0, i32 6
  %13 = call noundef i32 @_ZNK6icu_779UVector644sizeEv(ptr noundef nonnull align 8 dereferenceable(32) %12)
  store i32 %13, ptr %8, align 4, !tbaa !57
  call void @llvm.lifetime.start.p0(i64 4, ptr %9) #11
  store i32 0, ptr %9, align 4, !tbaa !57
  br label %14

14:                                               ; preds = %28, %3
  %15 = load i32, ptr %9, align 4, !tbaa !57
  %16 = load i32, ptr %8, align 4, !tbaa !57
  %17 = icmp slt i32 %15, %16
  br i1 %17, label %19, label %18

18:                                               ; preds = %14
  store i32 2, ptr %10, align 4
  br label %31

19:                                               ; preds = %14
  %20 = load i64, ptr %6, align 8, !tbaa !100
  %21 = getelementptr inbounds nuw %"class.icu_77::CollationDataBuilder", ptr %11, i32 0, i32 6
  %22 = load i32, ptr %9, align 4, !tbaa !57
  %23 = call noundef i64 @_ZNK6icu_779UVector6410elementAtiEi(ptr noundef nonnull align 8 dereferenceable(32) %21, i32 noundef %22)
  %24 = icmp eq i64 %20, %23
  br i1 %24, label %25, label %27

25:                                               ; preds = %19
  %26 = load i32, ptr %9, align 4, !tbaa !57
  store i32 %26, ptr %4, align 4
  store i32 1, ptr %10, align 4
  br label %31

27:                                               ; preds = %19
  br label %28

28:                                               ; preds = %27
  %29 = load i32, ptr %9, align 4, !tbaa !57
  %30 = add nsw i32 %29, 1
  store i32 %30, ptr %9, align 4, !tbaa !57
  br label %14, !llvm.loop !141

31:                                               ; preds = %25, %18
  call void @llvm.lifetime.end.p0(i64 4, ptr %9) #11
  %32 = load i32, ptr %10, align 4
  switch i32 %32, label %38 [
    i32 2, label %33
  ]

33:                                               ; preds = %31
  %34 = getelementptr inbounds nuw %"class.icu_77::CollationDataBuilder", ptr %11, i32 0, i32 6
  %35 = load i64, ptr %6, align 8, !tbaa !100
  %36 = load ptr, ptr %7, align 8, !tbaa !8
  call void @_ZN6icu_779UVector6410addElementElR10UErrorCode(ptr noundef nonnull align 8 dereferenceable(32) %34, i64 noundef %35, ptr noundef nonnull align 4 dereferenceable(4) %36)
  %37 = load i32, ptr %8, align 4, !tbaa !57
  store i32 %37, ptr %4, align 4
  store i32 1, ptr %10, align 4
  br label %38

38:                                               ; preds = %33, %31
  call void @llvm.lifetime.end.p0(i64 4, ptr %8) #11
  %39 = load i32, ptr %4, align 4
  ret i32 %39
}

; Function Attrs: mustprogress uwtable
define noundef i32 @_ZN6icu_7720CollationDataBuilder17encodeOneCEAsCE32El(i64 noundef %0) #4 align 2 {
  %2 = alloca i32, align 4
  %3 = alloca i64, align 8
  %4 = alloca i32, align 4
  %5 = alloca i32, align 4
  %6 = alloca i32, align 4
  %7 = alloca i32, align 4
  store i64 %0, ptr %3, align 8, !tbaa !100
  call void @llvm.lifetime.start.p0(i64 4, ptr %4) #11
  %8 = load i64, ptr %3, align 8, !tbaa !100
  %9 = ashr i64 %8, 32
  %10 = trunc i64 %9 to i32
  store i32 %10, ptr %4, align 4, !tbaa !57
  call void @llvm.lifetime.start.p0(i64 4, ptr %5) #11
  %11 = load i64, ptr %3, align 8, !tbaa !100
  %12 = trunc i64 %11 to i32
  store i32 %12, ptr %5, align 4, !tbaa !57
  call void @llvm.lifetime.start.p0(i64 4, ptr %6) #11
  %13 = load i64, ptr %3, align 8, !tbaa !100
  %14 = and i64 %13, 65535
  %15 = trunc i64 %14 to i32
  store i32 %15, ptr %6, align 4, !tbaa !57
  %16 = load i64, ptr %3, align 8, !tbaa !100
  %17 = and i64 %16, 281470698455295
  %18 = icmp eq i64 %17, 0
  br i1 %18, label %19, label %27

19:                                               ; preds = %1
  %20 = load i32, ptr %4, align 4, !tbaa !57
  %21 = load i32, ptr %5, align 4, !tbaa !57
  %22 = lshr i32 %21, 16
  %23 = or i32 %20, %22
  %24 = load i32, ptr %6, align 4, !tbaa !57
  %25 = lshr i32 %24, 8
  %26 = or i32 %23, %25
  store i32 %26, ptr %2, align 4
  store i32 1, ptr %7, align 4
  br label %47

27:                                               ; preds = %1
  %28 = load i64, ptr %3, align 8, !tbaa !100
  %29 = and i64 %28, 1099511627775
  %30 = icmp eq i64 %29, 83887360
  br i1 %30, label %31, label %34

31:                                               ; preds = %27
  %32 = load i32, ptr %4, align 4, !tbaa !57
  %33 = call noundef i32 @_ZN6icu_779Collation19makeLongPrimaryCE32Ej(i32 noundef %32)
  store i32 %33, ptr %2, align 4
  store i32 1, ptr %7, align 4
  br label %47

34:                                               ; preds = %27
  %35 = load i32, ptr %4, align 4, !tbaa !57
  %36 = icmp eq i32 %35, 0
  br i1 %36, label %37, label %44

37:                                               ; preds = %34
  %38 = load i32, ptr %6, align 4, !tbaa !57
  %39 = and i32 %38, 255
  %40 = icmp eq i32 %39, 0
  br i1 %40, label %41, label %44

41:                                               ; preds = %37
  %42 = load i32, ptr %5, align 4, !tbaa !57
  %43 = call noundef i32 @_ZN6icu_779Collation21makeLongSecondaryCE32Ej(i32 noundef %42)
  store i32 %43, ptr %2, align 4
  store i32 1, ptr %7, align 4
  br label %47

44:                                               ; preds = %37, %34
  br label %45

45:                                               ; preds = %44
  br label %46

46:                                               ; preds = %45
  store i32 1, ptr %2, align 4
  store i32 1, ptr %7, align 4
  br label %47

47:                                               ; preds = %46, %41, %31, %19
  call void @llvm.lifetime.end.p0(i64 4, ptr %6) #11
  call void @llvm.lifetime.end.p0(i64 4, ptr %5) #11
  call void @llvm.lifetime.end.p0(i64 4, ptr %4) #11
  %48 = load i32, ptr %2, align 4
  ret i32 %48
}

; Function Attrs: mustprogress uwtable
define noundef i32 @_ZN6icu_7720CollationDataBuilder11encodeOneCEElR10UErrorCode(ptr noundef nonnull align 8 dereferenceable(640) %0, i64 noundef %1, ptr noundef nonnull align 4 dereferenceable(4) %2) #4 align 2 {
  %4 = alloca i32, align 4
  %5 = alloca ptr, align 8
  %6 = alloca i64, align 8
  %7 = alloca ptr, align 8
  %8 = alloca i32, align 4
  %9 = alloca i32, align 4
  %10 = alloca i32, align 4
  store ptr %0, ptr %5, align 8, !tbaa !13
  store i64 %1, ptr %6, align 8, !tbaa !100
  store ptr %2, ptr %7, align 8, !tbaa !8
  %11 = load ptr, ptr %5, align 8
  call void @llvm.lifetime.start.p0(i64 4, ptr %8) #11
  %12 = load i64, ptr %6, align 8, !tbaa !100
  %13 = call noundef i32 @_ZN6icu_7720CollationDataBuilder17encodeOneCEAsCE32El(i64 noundef %12)
  store i32 %13, ptr %8, align 4, !tbaa !57
  %14 = load i32, ptr %8, align 4, !tbaa !57
  %15 = icmp ne i32 %14, 1
  br i1 %15, label %16, label %18

16:                                               ; preds = %3
  %17 = load i32, ptr %8, align 4, !tbaa !57
  store i32 %17, ptr %4, align 4
  store i32 1, ptr %9, align 4
  br label %36

18:                                               ; preds = %3
  call void @llvm.lifetime.start.p0(i64 4, ptr %10) #11
  %19 = load i64, ptr %6, align 8, !tbaa !100
  %20 = load ptr, ptr %7, align 8, !tbaa !8
  %21 = call noundef i32 @_ZN6icu_7720CollationDataBuilder5addCEElR10UErrorCode(ptr noundef nonnull align 8 dereferenceable(640) %11, i64 noundef %19, ptr noundef nonnull align 4 dereferenceable(4) %20)
  store i32 %21, ptr %10, align 4, !tbaa !57
  %22 = load ptr, ptr %7, align 8, !tbaa !8
  %23 = load i32, ptr %22, align 4, !tbaa !97
  %24 = call noundef signext i8 @_ZL9U_FAILURE10UErrorCode(i32 noundef %23)
  %25 = icmp ne i8 %24, 0
  br i1 %25, label %26, label %27

26:                                               ; preds = %18
  store i32 0, ptr %4, align 4
  store i32 1, ptr %9, align 4
  br label %35

27:                                               ; preds = %18
  %28 = load i32, ptr %10, align 4, !tbaa !57
  %29 = icmp sgt i32 %28, 524287
  br i1 %29, label %30, label %32

30:                                               ; preds = %27
  %31 = load ptr, ptr %7, align 8, !tbaa !8
  store i32 15, ptr %31, align 4, !tbaa !97
  store i32 0, ptr %4, align 4
  store i32 1, ptr %9, align 4
  br label %35

32:                                               ; preds = %27
  %33 = load i32, ptr %10, align 4, !tbaa !57
  %34 = call noundef i32 @_ZN6icu_779Collation29makeCE32FromTagIndexAndLengthEiii(i32 noundef 6, i32 noundef %33, i32 noundef 1)
  store i32 %34, ptr %4, align 4
  store i32 1, ptr %9, align 4
  br label %35

35:                                               ; preds = %32, %30, %26
  call void @llvm.lifetime.end.p0(i64 4, ptr %10) #11
  br label %36

36:                                               ; preds = %35, %16
  call void @llvm.lifetime.end.p0(i64 4, ptr %8) #11
  %37 = load i32, ptr %4, align 4
  ret i32 %37
}