; Function Attrs: mustprogress uwtable
define noundef range(i32 2, 1) i32 @_ZN6icu_7720CollationDataBuilder11encodeOneCEElR10UErrorCode(ptr noundef nonnull align 8 dereferenceable(640) %0, i64 noundef %1, ptr noundef nonnull align 4 dereferenceable(4) %2) local_unnamed_addr #6 align 2 {
  %4 = lshr i64 %1, 32
  %5 = trunc nuw i64 %4 to i32
  %6 = trunc i64 %1 to i32
  %7 = and i64 %1, 281470698455295
  %8 = icmp eq i64 %7, 0
  br i1 %8, label %_ZN6icu_7720CollationDataBuilder17encodeOneCEAsCE32El.exit, label %9

9:                                                ; preds = %3
  %10 = and i64 %1, 1099511627775
  %11 = icmp eq i64 %10, 83887360
  br i1 %11, label %12, label %14

12:                                               ; preds = %9
  %13 = or disjoint i32 %5, 193
  br label %_ZN6icu_7720CollationDataBuilder17encodeOneCEAsCE32El.exit.thread

14:                                               ; preds = %9
  %15 = icmp ult i64 %1, 4294967296
  %16 = and i32 %6, 255
  %17 = icmp eq i32 %16, 0
  %or.cond.i = and i1 %15, %17
  %18 = or i32 %6, 194
  br i1 %or.cond.i, label %_ZN6icu_7720CollationDataBuilder17encodeOneCEAsCE32El.exit.thread, label %_ZN6icu_7720CollationDataBuilder17encodeOneCEAsCE32El.exit.thread15

_ZN6icu_7720CollationDataBuilder17encodeOneCEAsCE32El.exit: ; preds = %3
  %19 = lshr i32 %6, 16
  %20 = lshr exact i32 %6, 8
  %21 = and i32 %20, 255
  %22 = or disjoint i32 %19, %21
  %23 = or disjoint i32 %22, %5
  %.not = icmp eq i32 %23, 1
  br i1 %.not, label %_ZN6icu_7720CollationDataBuilder17encodeOneCEAsCE32El.exit.thread15, label %_ZN6icu_7720CollationDataBuilder17encodeOneCEAsCE32El.exit.thread

_ZN6icu_7720CollationDataBuilder17encodeOneCEAsCE32El.exit.thread15: ; preds = %14, %_ZN6icu_7720CollationDataBuilder17encodeOneCEAsCE32El.exit
  %24 = getelementptr inbounds nuw i8, ptr %0, i64 72
  %25 = getelementptr inbounds nuw i8, ptr %0, i64 80
  %26 = load i32, ptr %25, align 8, !tbaa !125
  %.not14.i = icmp sgt i32 %26, 0
  br i1 %.not14.i, label %_ZNK6icu_779UVector6410elementAtiEi.exit.lr.ph.i, label %.critedge.i

_ZNK6icu_779UVector6410elementAtiEi.exit.lr.ph.i: ; preds = %_ZN6icu_7720CollationDataBuilder17encodeOneCEAsCE32El.exit.thread15
  %27 = getelementptr inbounds nuw i8, ptr %0, i64 96
  %28 = load ptr, ptr %27, align 8, !tbaa !72
  %wide.trip.count.i = zext nneg i32 %26 to i64
  br label %_ZNK6icu_779UVector6410elementAtiEi.exit.i

_ZNK6icu_779UVector6410elementAtiEi.exit.i:       ; preds = %32, %_ZNK6icu_779UVector6410elementAtiEi.exit.lr.ph.i
  %indvars.iv.i = phi i64 [ 0, %_ZNK6icu_779UVector6410elementAtiEi.exit.lr.ph.i ], [ %indvars.iv.next.i, %32 ]
  %29 = getelementptr inbounds nuw i64, ptr %28, i64 %indvars.iv.i
  %30 = load i64, ptr %29, align 8, !tbaa !89
  %31 = icmp eq i64 %1, %30
  br i1 %31, label %_ZN6icu_779UVector6410addElementElR10UErrorCode.exit.loopexit.i, label %32

32:                                               ; preds = %_ZNK6icu_779UVector6410elementAtiEi.exit.i
  %indvars.iv.next.i = add nuw nsw i64 %indvars.iv.i, 1
  %exitcond.not.i = icmp eq i64 %indvars.iv.next.i, %wide.trip.count.i
  br i1 %exitcond.not.i, label %.critedge.i, label %_ZNK6icu_779UVector6410elementAtiEi.exit.i, !llvm.loop !126

.critedge.i:                                      ; preds = %32, %_ZN6icu_7720CollationDataBuilder17encodeOneCEAsCE32El.exit.thread15
  %33 = icmp slt i32 %26, -1
  %34 = getelementptr inbounds nuw i8, ptr %0, i64 84
  %35 = load i32, ptr %34, align 4
  %.not.i.i.i = icmp sle i32 %35, %26
  %or.cond.i.i.i = select i1 %33, i1 true, i1 %.not.i.i.i
  br i1 %or.cond.i.i.i, label %_ZN6icu_779UVector6414ensureCapacityEiR10UErrorCode.exit.i.i, label %_ZN6icu_779UVector6414ensureCapacityEiR10UErrorCode.exit.thread.i.i

_ZN6icu_779UVector6414ensureCapacityEiR10UErrorCode.exit.i.i: ; preds = %.critedge.i
  %36 = add nsw i32 %26, 1
  %37 = tail call noundef signext i8 @_ZN6icu_779UVector6414expandCapacityEiR10UErrorCode(ptr noundef nonnull align 8 dereferenceable(32) %24, i32 noundef %36, ptr noundef nonnull align 4 dereferenceable(4) %2)
  %.not.i.i = icmp eq i8 %37, 0
  br i1 %.not.i.i, label %_ZN6icu_7720CollationDataBuilder5addCEElR10UErrorCode.exit, label %_ZN6icu_779UVector6414ensureCapacityEiR10UErrorCode.exit._ZN6icu_779UVector6414ensureCapacityEiR10UErrorCode.exit.thread_crit_edge.i.i

_ZN6icu_779UVector6414ensureCapacityEiR10UErrorCode.exit._ZN6icu_779UVector6414ensureCapacityEiR10UErrorCode.exit.thread_crit_edge.i.i: ; preds = %_ZN6icu_779UVector6414ensureCapacityEiR10UErrorCode.exit.i.i
  %.pre.i.i = load i32, ptr %25, align 8, !tbaa !125
  br label %_ZN6icu_779UVector6414ensureCapacityEiR10UErrorCode.exit.thread.i.i

_ZN6icu_779UVector6414ensureCapacityEiR10UErrorCode.exit.thread.i.i: ; preds = %_ZN6icu_779UVector6414ensureCapacityEiR10UErrorCode.exit._ZN6icu_779UVector6414ensureCapacityEiR10UErrorCode.exit.thread_crit_edge.i.i, %.critedge.i
  %38 = phi i32 [ %.pre.i.i, %_ZN6icu_779UVector6414ensureCapacityEiR10UErrorCode.exit._ZN6icu_779UVector6414ensureCapacityEiR10UErrorCode.exit.thread_crit_edge.i.i ], [ %26, %.critedge.i ]
  %39 = getelementptr inbounds nuw i8, ptr %0, i64 96
  %40 = load ptr, ptr %39, align 8, !tbaa !72
  %41 = sext i32 %38 to i64
  %42 = getelementptr inbounds i64, ptr %40, i64 %41
  store i64 %1, ptr %42, align 8, !tbaa !89
  %43 = add nsw i32 %38, 1
  store i32 %43, ptr %25, align 8, !tbaa !125
  br label %_ZN6icu_7720CollationDataBuilder5addCEElR10UErrorCode.exit

_ZN6icu_779UVector6410addElementElR10UErrorCode.exit.loopexit.i: ; preds = %_ZNK6icu_779UVector6410elementAtiEi.exit.i
  %44 = trunc nuw nsw i64 %indvars.iv.i to i32
  br label %_ZN6icu_7720CollationDataBuilder5addCEElR10UErrorCode.exit

_ZN6icu_7720CollationDataBuilder5addCEElR10UErrorCode.exit: ; preds = %_ZN6icu_779UVector6414ensureCapacityEiR10UErrorCode.exit.i.i, %_ZN6icu_779UVector6414ensureCapacityEiR10UErrorCode.exit.thread.i.i, %_ZN6icu_779UVector6410addElementElR10UErrorCode.exit.loopexit.i
  %.1.i = phi i32 [ %26, %_ZN6icu_779UVector6414ensureCapacityEiR10UErrorCode.exit.i.i ], [ %26, %_ZN6icu_779UVector6414ensureCapacityEiR10UErrorCode.exit.thread.i.i ], [ %44, %_ZN6icu_779UVector6410addElementElR10UErrorCode.exit.loopexit.i ]
  %45 = load i32, ptr %2, align 4, !tbaa !76
  %46 = icmp slt i32 %45, 1
  br i1 %46, label %47, label %_ZN6icu_7720CollationDataBuilder17encodeOneCEAsCE32El.exit.thread

47:                                               ; preds = %_ZN6icu_7720CollationDataBuilder5addCEElR10UErrorCode.exit
  %48 = icmp sgt i32 %.1.i, 524287
  br i1 %48, label %49, label %50

49:                                               ; preds = %47
  store i32 15, ptr %2, align 4, !tbaa !76
  br label %_ZN6icu_7720CollationDataBuilder17encodeOneCEAsCE32El.exit.thread

50:                                               ; preds = %47
  %51 = shl i32 %.1.i, 13
  %52 = or disjoint i32 %51, 454
  br label %_ZN6icu_7720CollationDataBuilder17encodeOneCEAsCE32El.exit.thread

_ZN6icu_7720CollationDataBuilder17encodeOneCEAsCE32El.exit.thread: ; preds = %14, %12, %49, %50, %_ZN6icu_7720CollationDataBuilder5addCEElR10UErrorCode.exit, %_ZN6icu_7720CollationDataBuilder17encodeOneCEAsCE32El.exit
  %.0 = phi i32 [ %23, %_ZN6icu_7720CollationDataBuilder17encodeOneCEAsCE32El.exit ], [ 0, %49 ], [ %52, %50 ], [ 0, %_ZN6icu_7720CollationDataBuilder5addCEElR10UErrorCode.exit ], [ %13, %12 ], [ %18, %14 ]
  ret i32 %.0
}